target datalayout = "e-m:e-p270:32:32-p271:32:32-p272:64:64-i64:64-i128:128-f80:128-n8:16:32:64-S128"
target triple = "x86_64-pc-linux-gnu"

%struct.avail_res = type { i16, i16, i16, ptr, i32, i32, i16, i16, i16, ptr, i16, i16 }
%struct.foreach_add_nodes_lln_t = type { ptr, ptr, i32, i32, i32, ptr, ptr, ptr, ptr, ptr, ptr, ptr }
%struct.node_weight_struct = type { ptr, i64 }

; Function Attrs: nounwind uwtable
define internal i32 @_add_nodes_by_weight_spread(ptr noundef %0, ptr noundef %1) #0 {
  %3 = alloca i32, align 4
  %4 = alloca ptr, align 8
  %5 = alloca ptr, align 8
  %6 = alloca ptr, align 8
  %7 = alloca ptr, align 8
  %8 = alloca i32, align 4
  %9 = alloca i32, align 4
  store ptr %0, ptr %4, align 8
  store ptr %1, ptr %5, align 8
  call void @llvm.lifetime.start.p0(i64 8, ptr %6) #4
  %10 = load ptr, ptr %5, align 8
  store ptr %10, ptr %6, align 8
  call void @llvm.lifetime.start.p0(i64 8, ptr %7) #4
  %11 = load ptr, ptr %4, align 8
  store ptr %11, ptr %7, align 8
  call void @llvm.lifetime.start.p0(i64 4, ptr %8) #4
  %12 = load ptr, ptr %6, align 8
  %13 = getelementptr inbounds nuw %struct.foreach_add_nodes_lln_t, ptr %12, i32 0, i32 4
  %14 = load i32, ptr %13, align 8
  store i32 %14, ptr %8, align 4
  br label %15

15:                                               ; preds = %131, %2
  %16 = load i32, ptr %8, align 4
  %17 = load ptr, ptr %6, align 8
  %18 = getelementptr inbounds nuw %struct.foreach_add_nodes_lln_t, ptr %17, i32 0, i32 3
  %19 = load i32, ptr %18, align 4
  %20 = icmp sle i32 %16, %19
  br i1 %20, label %22, label %21

21:                                               ; preds = %15
  store i32 2, ptr %9, align 4
  br label %134

22:                                               ; preds = %15
  %23 = load ptr, ptr %6, align 8
  %24 = getelementptr inbounds nuw %struct.foreach_add_nodes_lln_t, ptr %23, i32 0, i32 1
  %25 = load ptr, ptr %24, align 8
  %26 = load i32, ptr %8, align 4
  %27 = sext i32 %26 to i64
  %28 = getelementptr inbounds ptr, ptr %25, i64 %27
  %29 = load ptr, ptr %28, align 8
  %30 = icmp ne ptr %29, null
  br i1 %30, label %31, label %42

31:                                               ; preds = %22
  %32 = load ptr, ptr %6, align 8
  %33 = getelementptr inbounds nuw %struct.foreach_add_nodes_lln_t, ptr %32, i32 0, i32 1
  %34 = load ptr, ptr %33, align 8
  %35 = load i32, ptr %8, align 4
  %36 = sext i32 %35 to i64
  %37 = getelementptr inbounds ptr, ptr %34, i64 %36
  %38 = load ptr, ptr %37, align 8
  %39 = getelementptr inbounds nuw %struct.avail_res, ptr %38, i32 0, i32 0
  %40 = load i16, ptr %39, align 8
  %41 = icmp ne i16 %40, 0
  br i1 %41, label %43, label %42

42:                                               ; preds = %31, %22
  br label %131

43:                                               ; preds = %31
  %44 = load ptr, ptr %7, align 8
  %45 = getelementptr inbounds nuw %struct.node_weight_struct, ptr %44, i32 0, i32 0
  %46 = load ptr, ptr %45, align 8
  %47 = load i32, ptr %8, align 4
  %48 = sext i32 %47 to i64
  %49 = call i32 @slurm_bit_test(ptr noundef %46, i64 noundef %48)
  %50 = icmp ne i32 %49, 0
  br i1 %50, label %51, label %59

51:                                               ; preds = %43
  %52 = load ptr, ptr %6, align 8
  %53 = getelementptr inbounds nuw %struct.foreach_add_nodes_lln_t, ptr %52, i32 0, i32 7
  %54 = load ptr, ptr %53, align 8
  %55 = load i32, ptr %8, align 4
  %56 = sext i32 %55 to i64
  %57 = call i32 @slurm_bit_test(ptr noundef %54, i64 noundef %56)
  %58 = icmp ne i32 %57, 0
  br i1 %58, label %59, label %60

59:                                               ; preds = %51, %43
  br label %131

60:                                               ; preds = %51
  %61 = load ptr, ptr %6, align 8
  %62 = getelementptr inbounds nuw %struct.foreach_add_nodes_lln_t, ptr %61, i32 0, i32 0
  %63 = load ptr, ptr %62, align 8
  %64 = load i32, ptr %8, align 4
  %65 = sext i32 %64 to i64
  %66 = getelementptr inbounds i16, ptr %63, i64 %65
  %67 = load i16, ptr %66, align 2
  %68 = icmp ne i16 %67, 0
  br i1 %68, label %70, label %69

69:                                               ; preds = %60
  br label %131

70:                                               ; preds = %60
  %71 = load ptr, ptr %6, align 8
  %72 = getelementptr inbounds nuw %struct.foreach_add_nodes_lln_t, ptr %71, i32 0, i32 7
  %73 = load ptr, ptr %72, align 8
  %74 = load i32, ptr %8, align 4
  %75 = sext i32 %74 to i64
  call void @bit_set(ptr noundef %73, i64 noundef %75)
  %76 = load ptr, ptr %6, align 8
  %77 = getelementptr inbounds nuw %struct.foreach_add_nodes_lln_t, ptr %76, i32 0, i32 2
  %78 = load i32, ptr %77, align 8
  %79 = trunc i32 %78 to i16
  %80 = load ptr, ptr %6, align 8
  %81 = getelementptr inbounds nuw %struct.foreach_add_nodes_lln_t, ptr %80, i32 0, i32 11
  %82 = load ptr, ptr %81, align 8
  %83 = load i32, ptr %8, align 4
  %84 = sext i32 %83 to i64
  %85 = getelementptr inbounds i16, ptr %82, i64 %84
  store i16 %79, ptr %85, align 2
  %86 = load ptr, ptr %6, align 8
  %87 = getelementptr inbounds nuw %struct.foreach_add_nodes_lln_t, ptr %86, i32 0, i32 9
  %88 = load ptr, ptr %87, align 8
  %89 = load i32, ptr %88, align 4
  %90 = add nsw i32 %89, -1
  store i32 %90, ptr %88, align 4
  %91 = load ptr, ptr %6, align 8
  %92 = getelementptr inbounds nuw %struct.foreach_add_nodes_lln_t, ptr %91, i32 0, i32 6
  %93 = load ptr, ptr %92, align 8
  %94 = load i32, ptr %93, align 4
  %95 = add nsw i32 %94, -1
  store i32 %95, ptr %93, align 4
  %96 = load ptr, ptr %6, align 8
  %97 = getelementptr inbounds nuw %struct.foreach_add_nodes_lln_t, ptr %96, i32 0, i32 5
  %98 = load ptr, ptr %97, align 8
  %99 = load i32, ptr %98, align 4
  %100 = add i32 %99, -1
  store i32 %100, ptr %98, align 4
  %101 = load ptr, ptr %6, align 8
  %102 = getelementptr inbounds nuw %struct.foreach_add_nodes_lln_t, ptr %101, i32 0, i32 2
  %103 = load i32, ptr %102, align 8
  %104 = zext i32 %103 to i64
  %105 = load ptr, ptr %6, align 8
  %106 = getelementptr inbounds nuw %struct.foreach_add_nodes_lln_t, ptr %105, i32 0, i32 10
  %107 = load ptr, ptr %106, align 8
  %108 = load i64, ptr %107, align 8
  %109 = sub nsw i64 %108, %104
  store i64 %109, ptr %107, align 8
  %110 = load ptr, ptr %6, align 8
  %111 = getelementptr inbounds nuw %struct.foreach_add_nodes_lln_t, ptr %110, i32 0, i32 2
  %112 = load i32, ptr %111, align 8
  %113 = load ptr, ptr %6, align 8
  %114 = getelementptr inbounds nuw %struct.foreach_add_nodes_lln_t, ptr %113, i32 0, i32 8
  %115 = load ptr, ptr %114, align 8
  %116 = load i32, ptr %115, align 4
  %117 = sub i32 %116, %112
  store i32 %117, ptr %115, align 4
  %118 = load ptr, ptr %6, align 8
  %119 = getelementptr inbounds nuw %struct.foreach_add_nodes_lln_t, ptr %118, i32 0, i32 5
  %120 = load ptr, ptr %119, align 8
  %121 = load i32, ptr %120, align 4
  %122 = icmp ule i32 %121, 0
  br i1 %122, label %129, label %123

123:                                              ; preds = %70
  %124 = load ptr, ptr %6, align 8
  %125 = getelementptr inbounds nuw %struct.foreach_add_nodes_lln_t, ptr %124, i32 0, i32 9
  %126 = load ptr, ptr %125, align 8
  %127 = load i32, ptr %126, align 4
  %128 = icmp sle i32 %127, 0
  br i1 %128, label %129, label %130

129:                                              ; preds = %123, %70
  store i32 1, ptr %3, align 4
  store i32 1, ptr %9, align 4
  br label %134

130:                                              ; preds = %123
  br label %131

131:                                              ; preds = %130, %69, %59, %42
  %132 = load i32, ptr %8, align 4
  %133 = add nsw i32 %132, 1
  store i32 %133, ptr %8, align 4
  br label %15, !llvm.loop !49

134:                                              ; preds = %129, %21
  call void @llvm.lifetime.end.p0(i64 4, ptr %8) #4
  %135 = load i32, ptr %9, align 4
  switch i32 %135, label %137 [
    i32 2, label %136
  ]

136:                                              ; preds = %134
  store i32 0, ptr %3, align 4
  store i32 1, ptr %9, align 4
  br label %137

137:                                              ; preds = %136, %134
  call void @llvm.lifetime.end.p0(i64 8, ptr %7) #4
  call void @llvm.lifetime.end.p0(i64 8, ptr %6) #4
  %138 = load i32, ptr %3, align 4
  ret i32 %138
}