; Function Attrs: nounwind uwtable
define internal range(i32 0, 2) i32 @_add_nodes_by_weight_spread(ptr noundef readonly captures(none) %0, ptr noundef readonly captures(none) %1) #0 {
  %3 = getelementptr inbounds nuw i8, ptr %1, i64 24
  %4 = load i32, ptr %3, align 8
  %5 = getelementptr inbounds nuw i8, ptr %1, i64 20
  %6 = load i32, ptr %5, align 4
  %.not39.not = icmp sgt i32 %4, %6
  br i1 %.not39.not, label %._crit_edge, label %.lr.ph

.lr.ph:                                           ; preds = %2
  %7 = getelementptr inbounds nuw i8, ptr %1, i64 8
  %8 = getelementptr inbounds nuw i8, ptr %1, i64 48
  %9 = getelementptr inbounds nuw i8, ptr %1, i64 16
  %10 = getelementptr inbounds nuw i8, ptr %1, i64 80
  %11 = getelementptr inbounds nuw i8, ptr %1, i64 64
  %12 = getelementptr inbounds nuw i8, ptr %1, i64 40
  %13 = getelementptr inbounds nuw i8, ptr %1, i64 32
  %14 = getelementptr inbounds nuw i8, ptr %1, i64 72
  %15 = getelementptr inbounds nuw i8, ptr %1, i64 56
  %16 = sext i32 %4 to i64
  br label %17

17:                                               ; preds = %.lr.ph, %64
  %indvars.iv = phi i64 [ %16, %.lr.ph ], [ %indvars.iv.next, %64 ]
  %18 = load ptr, ptr %7, align 8
  %19 = getelementptr inbounds ptr, ptr %18, i64 %indvars.iv
  %20 = load ptr, ptr %19, align 8
  %.not34 = icmp eq ptr %20, null
  br i1 %.not34, label %64, label %21

21:                                               ; preds = %17
  %22 = load i16, ptr %20, align 8
  %.not35 = icmp eq i16 %22, 0
  br i1 %.not35, label %64, label %23

23:                                               ; preds = %21
  %24 = load ptr, ptr %0, align 8
  %25 = tail call i32 @slurm_bit_test(ptr noundef %24, i64 noundef %indvars.iv) #8
  %.not36 = icmp eq i32 %25, 0
  br i1 %.not36, label %64, label %26

26:                                               ; preds = %23
  %27 = load ptr, ptr %8, align 8
  %28 = tail call i32 @slurm_bit_test(ptr noundef %27, i64 noundef %indvars.iv) #8
  %.not37 = icmp eq i32 %28, 0
  br i1 %.not37, label %29, label %64

29:                                               ; preds = %26
  %30 = load ptr, ptr %1, align 8
  %31 = getelementptr inbounds i16, ptr %30, i64 %indvars.iv
  %32 = load i16, ptr %31, align 2
  %.not38 = icmp eq i16 %32, 0
  br i1 %.not38, label %64, label %33

33:                                               ; preds = %29
  %34 = load ptr, ptr %8, align 8
  tail call void @bit_set(ptr noundef %34, i64 noundef %indvars.iv) #8
  %35 = load i32, ptr %9, align 8
  %36 = trunc i32 %35 to i16
  %37 = load ptr, ptr %10, align 8
  %38 = getelementptr inbounds i16, ptr %37, i64 %indvars.iv
  store i16 %36, ptr %38, align 2
  %39 = load ptr, ptr %11, align 8
  %40 = load i32, ptr %39, align 4
  %41 = add nsw i32 %40, -1
  store i32 %41, ptr %39, align 4
  %42 = load ptr, ptr %12, align 8
  %43 = load i32, ptr %42, align 4
  %44 = add nsw i32 %43, -1
  store i32 %44, ptr %42, align 4
  %45 = load ptr, ptr %13, align 8
  %46 = load i32, ptr %45, align 4
  %47 = add i32 %46, -1
  store i32 %47, ptr %45, align 4
  %48 = load i32, ptr %9, align 8
  %49 = zext i32 %48 to i64
  %50 = load ptr, ptr %14, align 8
  %51 = load i64, ptr %50, align 8
  %52 = sub nsw i64 %51, %49
  store i64 %52, ptr %50, align 8
  %53 = load i32, ptr %9, align 8
  %54 = load ptr, ptr %15, align 8
  %55 = load i32, ptr %54, align 4
  %56 = sub i32 %55, %53
  store i32 %56, ptr %54, align 4
  %57 = load ptr, ptr %13, align 8
  %58 = load i32, ptr %57, align 4
  %59 = icmp eq i32 %58, 0
  br i1 %59, label %._crit_edge, label %60

60:                                               ; preds = %33
  %61 = load ptr, ptr %11, align 8
  %62 = load i32, ptr %61, align 4
  %63 = icmp slt i32 %62, 1
  br i1 %63, label %._crit_edge, label %64

64:                                               ; preds = %60, %29, %23, %26, %17, %21
  %indvars.iv.next = add nsw i64 %indvars.iv, 1
  %65 = load i32, ptr %5, align 4
  %66 = sext i32 %65 to i64
  %.not = icmp slt i64 %indvars.iv, %66
  br i1 %.not, label %17, label %._crit_edge, !llvm.loop !46

._crit_edge:                                      ; preds = %64, %60, %33, %2
  %.not.lcssa = phi i32 [ 0, %2 ], [ 1, %33 ], [ 1, %60 ], [ 0, %64 ]
  ret i32 %.not.lcssa
}